; ModuleID = '24/2482.c'
source_filename = "24/2482.c"
target datalayout = "e-m:e-p270:32:32-p271:32:32-p272:64:64-i64:64-f80:128-n8:16:32:64-S128"
target triple = "x86_64-pc-linux-gnu"

@.str = private unnamed_addr constant [3 x i8] c"%c\00", align 1
@.str.1 = private unnamed_addr constant [2 x i8] c"\0A\00", align 1

; Function Attrs: noinline nounwind uwtable
define dso_local i32 @main() #0 {
  %1 = alloca i32, align 4
  %2 = alloca [500 x i8], align 16
  %3 = alloca i32, align 4
  %4 = alloca [500 x i32], align 16
  %5 = alloca i32, align 4
  %6 = alloca i32, align 4
  %7 = alloca i32, align 4
  %8 = alloca i32, align 4
  %9 = alloca i32, align 4
  %10 = alloca i32, align 4
  store i32 0, i32* %1, align 4
  store i32 0, i32* %9, align 4
  store i32 0, i32* %10, align 4
  %11 = getelementptr inbounds [500 x i8], [500 x i8]* %2, i64 0, i64 0
  %12 = call i32 (i8*, ...) bitcast (i32 (...)* @gets to i32 (i8*, ...)*)(i8* %11)
  %13 = getelementptr inbounds [500 x i8], [500 x i8]* %2, i64 0, i64 0
  %14 = call i64 @strlen(i8* %13) #3
  %15 = trunc i64 %14 to i32
  store i32 %15, i32* %3, align 4
  store i32 0, i32* %6, align 4
  store i32 0, i32* %5, align 4
  br label %16

16:                                               ; preds = %42, %0
  %17 = load i32, i32* %5, align 4
  %18 = load i32, i32* %3, align 4
  %19 = icmp slt i32 %17, %18
  br i1 %19, label %20, label %45

20:                                               ; preds = %16
  %21 = load i32, i32* %5, align 4
  %22 = sext i32 %21 to i64
  %23 = getelementptr inbounds [500 x i8], [500 x i8]* %2, i64 0, i64 %22
  %24 = load i8, i8* %23, align 1
  %25 = sext i8 %24 to i32
  %26 = icmp eq i32 %25, 32
  br i1 %26, label %34, label %27

27:                                               ; preds = %20
  %28 = load i32, i32* %5, align 4
  %29 = sext i32 %28 to i64
  %30 = getelementptr inbounds [500 x i8], [500 x i8]* %2, i64 0, i64 %29
  %31 = load i8, i8* %30, align 1
  %32 = sext i8 %31 to i32
  %33 = icmp eq i32 %32, 44
  br i1 %33, label %34, label %41

34:                                               ; preds = %27, %20
  %35 = load i32, i32* %5, align 4
  %36 = load i32, i32* %6, align 4
  %37 = sext i32 %36 to i64
  %38 = getelementptr inbounds [500 x i32], [500 x i32]* %4, i64 0, i64 %37
  store i32 %35, i32* %38, align 4
  %39 = load i32, i32* %6, align 4
  %40 = add nsw i32 %39, 1
  store i32 %40, i32* %6, align 4
  br label %41

41:                                               ; preds = %34, %27
  br label %42

42:                                               ; preds = %41
  %43 = load i32, i32* %5, align 4
  %44 = add nsw i32 %43, 1
  store i32 %44, i32* %5, align 4
  br label %16

45:                                               ; preds = %16
  %46 = load i32, i32* %5, align 4
  %47 = load i32, i32* %6, align 4
  %48 = sext i32 %47 to i64
  %49 = getelementptr inbounds [500 x i32], [500 x i32]* %4, i64 0, i64 %48
  store i32 %46, i32* %49, align 4
  %50 = getelementptr inbounds [500 x i32], [500 x i32]* %4, i64 0, i64 0
  %51 = load i32, i32* %50, align 16
  %52 = add nsw i32 %51, 1
  store i32 %52, i32* %7, align 4
  %53 = getelementptr inbounds [500 x i32], [500 x i32]* %4, i64 0, i64 0
  %54 = load i32, i32* %53, align 16
  %55 = add nsw i32 %54, 1
  store i32 %55, i32* %8, align 4
  store i32 0, i32* %5, align 4
  br label %56

56:                                               ; preds = %124, %45
  %57 = load i32, i32* %5, align 4
  %58 = load i32, i32* %6, align 4
  %59 = icmp slt i32 %57, %58
  br i1 %59, label %60, label %127

60:                                               ; preds = %56
  %61 = load i32, i32* %5, align 4
  %62 = add nsw i32 %61, 1
  %63 = sext i32 %62 to i64
  %64 = getelementptr inbounds [500 x i32], [500 x i32]* %4, i64 0, i64 %63
  %65 = load i32, i32* %64, align 4
  %66 = load i32, i32* %5, align 4
  %67 = sext i32 %66 to i64
  %68 = getelementptr inbounds [500 x i32], [500 x i32]* %4, i64 0, i64 %67
  %69 = load i32, i32* %68, align 4
  %70 = sub nsw i32 %65, %69
  %71 = load i32, i32* %7, align 4
  %72 = icmp sgt i32 %70, %71
  br i1 %72, label %73, label %85

73:                                               ; preds = %60
  %74 = load i32, i32* %5, align 4
  %75 = add nsw i32 %74, 1
  %76 = sext i32 %75 to i64
  %77 = getelementptr inbounds [500 x i32], [500 x i32]* %4, i64 0, i64 %76
  %78 = load i32, i32* %77, align 4
  %79 = load i32, i32* %5, align 4
  %80 = sext i32 %79 to i64
  %81 = getelementptr inbounds [500 x i32], [500 x i32]* %4, i64 0, i64 %80
  %82 = load i32, i32* %81, align 4
  %83 = sub nsw i32 %78, %82
  store i32 %83, i32* %7, align 4
  %84 = load i32, i32* %5, align 4
  store i32 %84, i32* %9, align 4
  br label %123

85:                                               ; preds = %60
  %86 = load i32, i32* %5, align 4
  %87 = add nsw i32 %86, 1
  %88 = sext i32 %87 to i64
  %89 = getelementptr inbounds [500 x i32], [500 x i32]* %4, i64 0, i64 %88
  %90 = load i32, i32* %89, align 4
  %91 = load i32, i32* %5, align 4
  %92 = sext i32 %91 to i64
  %93 = getelementptr inbounds [500 x i32], [500 x i32]* %4, i64 0, i64 %92
  %94 = load i32, i32* %93, align 4
  %95 = sub nsw i32 %90, %94
  %96 = load i32, i32* %8, align 4
  %97 = icmp slt i32 %95, %96
  br i1 %97, label %98, label %122

98:                                               ; preds = %85
  %99 = load i32, i32* %5, align 4
  %100 = add nsw i32 %99, 1
  %101 = sext i32 %100 to i64
  %102 = getelementptr inbounds [500 x i32], [500 x i32]* %4, i64 0, i64 %101
  %103 = load i32, i32* %102, align 4
  %104 = load i32, i32* %5, align 4
  %105 = sext i32 %104 to i64
  %106 = getelementptr inbounds [500 x i32], [500 x i32]* %4, i64 0, i64 %105
  %107 = load i32, i32* %106, align 4
  %108 = sub nsw i32 %103, %107
  %109 = icmp sgt i32 %108, 1
  br i1 %109, label %110, label %122

110:                                              ; preds = %98
  %111 = load i32, i32* %5, align 4
  %112 = add nsw i32 %111, 1
  %113 = sext i32 %112 to i64
  %114 = getelementptr inbounds [500 x i32], [500 x i32]* %4, i64 0, i64 %113
  %115 = load i32, i32* %114, align 4
  %116 = load i32, i32* %5, align 4
  %117 = sext i32 %116 to i64
  %118 = getelementptr inbounds [500 x i32], [500 x i32]* %4, i64 0, i64 %117
  %119 = load i32, i32* %118, align 4
  %120 = sub nsw i32 %115, %119
  store i32 %120, i32* %8, align 4
  %121 = load i32, i32* %5, align 4
  store i32 %121, i32* %10, align 4
  br label %122

122:                                              ; preds = %110, %98, %85
  br label %123

123:                                              ; preds = %122, %73
  br label %124

124:                                              ; preds = %123
  %125 = load i32, i32* %5, align 4
  %126 = add nsw i32 %125, 1
  store i32 %126, i32* %5, align 4
  br label %56

127:                                              ; preds = %56
  %128 = load i32, i32* %7, align 4
  %129 = getelementptr inbounds [500 x i32], [500 x i32]* %4, i64 0, i64 0
  %130 = load i32, i32* %129, align 16
  %131 = add nsw i32 %130, 1
  %132 = icmp eq i32 %128, %131
  br i1 %132, label %133, label %150

133:                                              ; preds = %127
  store i32 0, i32* %5, align 4
  br label %134

134:                                              ; preds = %146, %133
  %135 = load i32, i32* %5, align 4
  %136 = getelementptr inbounds [500 x i32], [500 x i32]* %4, i64 0, i64 0
  %137 = load i32, i32* %136, align 16
  %138 = icmp slt i32 %135, %137
  br i1 %138, label %139, label %149

139:                                              ; preds = %134
  %140 = load i32, i32* %5, align 4
  %141 = sext i32 %140 to i64
  %142 = getelementptr inbounds [500 x i8], [500 x i8]* %2, i64 0, i64 %141
  %143 = load i8, i8* %142, align 1
  %144 = sext i8 %143 to i32
  %145 = call i32 (i8*, ...) @printf(i8* getelementptr inbounds ([3 x i8], [3 x i8]* @.str, i64 0, i64 0), i32 %144)
  br label %146

146:                                              ; preds = %139
  %147 = load i32, i32* %5, align 4
  %148 = add nsw i32 %147, 1
  store i32 %148, i32* %5, align 4
  br label %134

149:                                              ; preds = %134
  br label %175

150:                                              ; preds = %127
  %151 = load i32, i32* %9, align 4
  %152 = sext i32 %151 to i64
  %153 = getelementptr inbounds [500 x i32], [500 x i32]* %4, i64 0, i64 %152
  %154 = load i32, i32* %153, align 4
  %155 = add nsw i32 %154, 1
  store i32 %155, i32* %5, align 4
  br label %156

156:                                              ; preds = %171, %150
  %157 = load i32, i32* %5, align 4
  %158 = load i32, i32* %9, align 4
  %159 = add nsw i32 %158, 1
  %160 = sext i32 %159 to i64
  %161 = getelementptr inbounds [500 x i32], [500 x i32]* %4, i64 0, i64 %160
  %162 = load i32, i32* %161, align 4
  %163 = icmp slt i32 %157, %162
  br i1 %163, label %164, label %174

164:                                              ; preds = %156
  %165 = load i32, i32* %5, align 4
  %166 = sext i32 %165 to i64
  %167 = getelementptr inbounds [500 x i8], [500 x i8]* %2, i64 0, i64 %166
  %168 = load i8, i8* %167, align 1
  %169 = sext i8 %168 to i32
  %170 = call i32 (i8*, ...) @printf(i8* getelementptr inbounds ([3 x i8], [3 x i8]* @.str, i64 0, i64 0), i32 %169)
  br label %171

171:                                              ; preds = %164
  %172 = load i32, i32* %5, align 4
  %173 = add nsw i32 %172, 1
  store i32 %173, i32* %5, align 4
  br label %156

174:                                              ; preds = %156
  br label %175

175:                                              ; preds = %174, %149
  %176 = call i32 (i8*, ...) @printf(i8* getelementptr inbounds ([2 x i8], [2 x i8]* @.str.1, i64 0, i64 0))
  %177 = load i32, i32* %8, align 4
  %178 = getelementptr inbounds [500 x i32], [500 x i32]* %4, i64 0, i64 0
  %179 = load i32, i32* %178, align 16
  %180 = add nsw i32 %179, 1
  %181 = icmp eq i32 %177, %180
  br i1 %181, label %182, label %199

182:                                              ; preds = %175
  store i32 0, i32* %5, align 4
  br label %183

183:                                              ; preds = %195, %182
  %184 = load i32, i32* %5, align 4
  %185 = getelementptr inbounds [500 x i32], [500 x i32]* %4, i64 0, i64 0
  %186 = load i32, i32* %185, align 16
  %187 = icmp slt i32 %184, %186
  br i1 %187, label %188, label %198

188:                                              ; preds = %183
  %189 = load i32, i32* %5, align 4
  %190 = sext i32 %189 to i64
  %191 = getelementptr inbounds [500 x i8], [500 x i8]* %2, i64 0, i64 %190
  %192 = load i8, i8* %191, align 1
  %193 = sext i8 %192 to i32
  %194 = call i32 (i8*, ...) @printf(i8* getelementptr inbounds ([3 x i8], [3 x i8]* @.str, i64 0, i64 0), i32 %193)
  br label %195

195:                                              ; preds = %188
  %196 = load i32, i32* %5, align 4
  %197 = add nsw i32 %196, 1
  store i32 %197, i32* %5, align 4
  br label %183

198:                                              ; preds = %183
  br label %224

199:                                              ; preds = %175
  %200 = load i32, i32* %10, align 4
  %201 = sext i32 %200 to i64
  %202 = getelementptr inbounds [500 x i32], [500 x i32]* %4, i64 0, i64 %201
  %203 = load i32, i32* %202, align 4
  %204 = add nsw i32 %203, 1
  store i32 %204, i32* %5, align 4
  br label %205

205:                                              ; preds = %220, %199
  %206 = load i32, i32* %5, align 4
  %207 = load i32, i32* %10, align 4
  %208 = add nsw i32 %207, 1
  %209 = sext i32 %208 to i64
  %210 = getelementptr inbounds [500 x i32], [500 x i32]* %4, i64 0, i64 %209
  %211 = load i32, i32* %210, align 4
  %212 = icmp slt i32 %206, %211
  br i1 %212, label %213, label %223

213:                                              ; preds = %205
  %214 = load i32, i32* %5, align 4
  %215 = sext i32 %214 to i64
  %216 = getelementptr inbounds [500 x i8], [500 x i8]* %2, i64 0, i64 %215
  %217 = load i8, i8* %216, align 1
  %218 = sext i8 %217 to i32
  %219 = call i32 (i8*, ...) @printf(i8* getelementptr inbounds ([3 x i8], [3 x i8]* @.str, i64 0, i64 0), i32 %218)
  br label %220

220:                                              ; preds = %213
  %221 = load i32, i32* %5, align 4
  %222 = add nsw i32 %221, 1
  store i32 %222, i32* %5, align 4
  br label %205

223:                                              ; preds = %205
  br label %224

224:                                              ; preds = %223, %198
  %225 = load i32, i32* %1, align 4
  ret i32 %225
}

declare dso_local i32 @gets(...) #1

; Function Attrs: nounwind readonly
declare dso_local i64 @strlen(i8*) #2

declare dso_local i32 @printf(i8*, ...) #1


!llvm.module.flags = !{!0}
!llvm.ident = !{!1}

!0 = !{i32 1, !"wchar_size", i32 4}
!1 = !{!"clang version 10.0.0-4ubuntu1 "}
